target datalayout = "e-m:e-p270:32:32-p271:32:32-p272:64:64-i64:64-i128:128-f80:128-n8:16:32:64-S128"
target triple = "x86_64-pc-linux-gnu"

%struct._fcgi_request = type { i32, i32, i32, i32, i32, i32, i32, i32, i32, ptr, ptr, [8192 x i8], [16 x i8], %struct._fcgi_req_hook, i32, %struct._fcgi_hash }
%struct._fcgi_req_hook = type { ptr, ptr, ptr }
%struct._fcgi_hash = type { [128 x ptr], ptr, ptr, ptr }

; Function Attrs: nounwind uwtable
define hidden i32 @fcgi_has_env(ptr noundef %0) #0 {
  %2 = alloca ptr, align 8
  store ptr %0, ptr %2, align 8
  %3 = load ptr, ptr %2, align 8
  %4 = icmp ne ptr %3, null
  br i1 %4, label %5, label %10

5:                                                ; preds = %1
  %6 = load ptr, ptr %2, align 8
  %7 = getelementptr inbounds %struct._fcgi_request, ptr %6, i32 0, i32 14
  %8 = load i32, ptr %7, align 8
  %9 = icmp ne i32 %8, 0
  br label %10

10:                                               ; preds = %5, %1
  %11 = phi i1 [ false, %1 ], [ %9, %5 ]
  %12 = zext i1 %11 to i32
  ret i32 %12
}