; Function Attrs: mustprogress nofree norecurse nosync nounwind willreturn memory(argmem: read) uwtable
define hidden i32 @fcgi_has_env(ptr noundef readonly %0) local_unnamed_addr #23 {
  %.not = icmp eq ptr %0, null
  br i1 %.not, label %7, label %2

2:                                                ; preds = %1
  %3 = getelementptr inbounds i8, ptr %0, i64 8288
  %4 = load i32, ptr %3, align 8
  %5 = icmp ne i32 %4, 0
  %6 = zext i1 %5 to i32
  br label %7

7:                                                ; preds = %2, %1
  %8 = phi i32 [ 0, %1 ], [ %6, %2 ]
  ret i32 %8
}